target datalayout = "e-m:e-p270:32:32-p271:32:32-p272:64:64-i64:64-i128:128-f80:128-n8:16:32:64-S128"
target triple = "x86_64-pc-linux-gnu"

%struct.XSetWindowAttributes = type { i64, i64, i64, i64, i32, i32, i32, i64, i64, i32, i64, i64, i32, i64, i64 }
%struct.SDL_VideoDevice = type { ptr, ptr, ptr, ptr, ptr, ptr, ptr, ptr, ptr, ptr, ptr, ptr, ptr, ptr, ptr, ptr, ptr, ptr, ptr, ptr, ptr, ptr, ptr, ptr, ptr, ptr, ptr, ptr, ptr, ptr, ptr, ptr, ptr, ptr, ptr, ptr, ptr, ptr, ptr, ptr, ptr, ptr, ptr, ptr, ptr, ptr, ptr, ptr, ptr, ptr, ptr, ptr, ptr, ptr, ptr, ptr, ptr, ptr, ptr, ptr, ptr, ptr, ptr, ptr, ptr, ptr, ptr, ptr, ptr, ptr, ptr, ptr, ptr, ptr, ptr, ptr, ptr, ptr, ptr, ptr, ptr, ptr, ptr, ptr, ptr, ptr, ptr, ptr, ptr, ptr, ptr, ptr, ptr, ptr, ptr, ptr, ptr, i64, i8, i8, i8, ptr, i32, ptr, %struct.SDL_Rect, ptr, ptr, i32, ptr, ptr, ptr, ptr, i64, ptr, i8, i32, i32, %struct.anon, ptr, ptr, ptr, ptr, ptr, ptr, %struct.SDL_AtomicInt, %struct.SDL_AtomicInt, i8, %struct.anon.0, ptr, ptr, ptr, ptr, ptr }
%struct.SDL_Rect = type { i32, i32, i32, i32 }
%struct.anon = type { i32, i32, i32, i32, i32, i32, i32, i32, i32, i32, i32, i32, i32, i32, i32, i32, i32, i32, i32, i32, i32, i32, i32, i32, i32, i32, i32, i32, i32, [256 x i8], ptr }
%struct.SDL_AtomicInt = type { i32 }
%struct.anon.0 = type { ptr, ptr, i32, [256 x i8], ptr }
%struct.SDL_VideoData = type { ptr, ptr, i32, ptr, i64, i32, ptr, i32, i64, i64, %struct.X11_ClipboardData, %struct.X11_ClipboardData, ptr, i64, %struct.X11_SettingsData, i8, %struct.anon.1, [256 x i32], i8, i8, i8, i64, i8, %struct.SDL_Point, i32, ptr, i32, i8, i32, %struct.anon.2, i8, i64, ptr, ptr, i8, i8, i8 }
%struct.X11_ClipboardData = type { ptr, ptr, ptr, i64, i32 }
%struct.X11_SettingsData = type { ptr }
%struct.anon.1 = type { i64, i64, i64, i64, i64, i64, i64, i64, i64, i64, i64, i64, i64, i64, i64, i64, i64, i64, i64, i64, i64, i64, i64, i64, i64, i64, i64, i64, i64, i64, i64, i64, i64, i64, i64, i64, i64, i64, i64, i64, i64, i64, i64, i64, i64, i64, i64, i64, i64, i64, i64, i64, i64 }
%struct.SDL_Point = type { i32, i32 }
%struct.anon.2 = type { ptr, i32, i32, i32, i16, i32, i32 }
%struct.anon.4 = type { ptr, ptr, i32, i32, i32, i32, ptr, i64, i64, i64, i32, ptr, i32, i32, i32, i32, i32, ptr, i32, i32, ptr, ptr, i32, i64, i64, ptr, ptr, ptr, ptr, i32, ptr, ptr, ptr, i32, i32, ptr, i64, i64, i32, i32, ptr, ptr, i32, ptr }
%struct.Screen = type { ptr, ptr, i64, i32, i32, i32, i32, i32, ptr, i32, ptr, ptr, i64, i64, i64, i32, i32, i32, i32, i64 }

@X11_XCreateWindow = external global ptr, align 8
@X11_XSelectInput = external global ptr, align 8
@X11_XFlush = external global ptr, align 8
@.str.6 = private unnamed_addr constant [44 x i8] c"Couldn't find a window to own the selection\00", align 1
@X11_XGetSelectionOwner = external global ptr, align 8
@X11_XSetSelectionOwner = external global ptr, align 8

; Function Attrs: nounwind uwtable
define hidden i64 @GetWindow(ptr noundef %0) #0 {
  %2 = alloca ptr, align 8
  %3 = alloca ptr, align 8
  %4 = alloca ptr, align 8
  %5 = alloca i64, align 8
  %6 = alloca %struct.XSetWindowAttributes, align 8
  store ptr %0, ptr %2, align 8
  call void @llvm.lifetime.start.p0(i64 8, ptr %3) #6
  %7 = load ptr, ptr %2, align 8
  %8 = getelementptr inbounds nuw %struct.SDL_VideoDevice, ptr %7, i32 0, i32 128
  %9 = load ptr, ptr %8, align 8
  store ptr %9, ptr %3, align 8
  %10 = load ptr, ptr %3, align 8
  %11 = getelementptr inbounds nuw %struct.SDL_VideoData, ptr %10, i32 0, i32 9
  %12 = load i64, ptr %11, align 8
  %13 = icmp eq i64 %12, 0
  br i1 %13, label %14, label %45

14:                                               ; preds = %1
  call void @llvm.lifetime.start.p0(i64 8, ptr %4) #6
  %15 = load ptr, ptr %3, align 8
  %16 = getelementptr inbounds nuw %struct.SDL_VideoData, ptr %15, i32 0, i32 0
  %17 = load ptr, ptr %16, align 8
  store ptr %17, ptr %4, align 8
  call void @llvm.lifetime.start.p0(i64 8, ptr %5) #6
  %18 = load ptr, ptr %4, align 8
  %19 = getelementptr inbounds nuw %struct.anon.4, ptr %18, i32 0, i32 35
  %20 = load ptr, ptr %19, align 8
  %21 = load ptr, ptr %4, align 8
  %22 = getelementptr inbounds nuw %struct.anon.4, ptr %21, i32 0, i32 33
  %23 = load i32, ptr %22, align 8
  %24 = sext i32 %23 to i64
  %25 = getelementptr inbounds %struct.Screen, ptr %20, i64 %24
  %26 = getelementptr inbounds nuw %struct.Screen, ptr %25, i32 0, i32 2
  %27 = load i64, ptr %26, align 8
  store i64 %27, ptr %5, align 8
  call void @llvm.lifetime.start.p0(i64 112, ptr %6) #6
  %28 = load ptr, ptr @X11_XCreateWindow, align 8
  %29 = load ptr, ptr %4, align 8
  %30 = load i64, ptr %5, align 8
  %31 = call i64 %28(ptr noundef %29, i64 noundef %30, i32 noundef -10, i32 noundef -10, i32 noundef 1, i32 noundef 1, i32 noundef 0, i32 noundef 0, i32 noundef 2, ptr noundef null, i64 noundef 0, ptr noundef %6)
  %32 = load ptr, ptr %3, align 8
  %33 = getelementptr inbounds nuw %struct.SDL_VideoData, ptr %32, i32 0, i32 9
  store i64 %31, ptr %33, align 8
  %34 = load ptr, ptr @X11_XSelectInput, align 8
  %35 = load ptr, ptr %4, align 8
  %36 = load ptr, ptr %3, align 8
  %37 = getelementptr inbounds nuw %struct.SDL_VideoData, ptr %36, i32 0, i32 9
  %38 = load i64, ptr %37, align 8
  %39 = call i32 %34(ptr noundef %35, i64 noundef %38, i64 noundef 4194304)
  %40 = load ptr, ptr @X11_XFlush, align 8
  %41 = load ptr, ptr %3, align 8
  %42 = getelementptr inbounds nuw %struct.SDL_VideoData, ptr %41, i32 0, i32 0
  %43 = load ptr, ptr %42, align 8
  %44 = call i32 %40(ptr noundef %43)
  call void @llvm.lifetime.end.p0(i64 112, ptr %6) #6
  call void @llvm.lifetime.end.p0(i64 8, ptr %5) #6
  call void @llvm.lifetime.end.p0(i64 8, ptr %4) #6
  br label %45

45:                                               ; preds = %14, %1
  %46 = load ptr, ptr %3, align 8
  %47 = getelementptr inbounds nuw %struct.SDL_VideoData, ptr %46, i32 0, i32 9
  %48 = load i64, ptr %47, align 8
  call void @llvm.lifetime.end.p0(i64 8, ptr %3) #6
  ret i64 %48
}

; Function Attrs: nounwind uwtable
define internal zeroext i1 @SetSelectionData(ptr noundef %0, i64 noundef %1, ptr noundef %2, ptr noundef %3, ptr noundef %4, i64 noundef %5, i32 noundef %6) #0 {
  %8 = alloca i1, align 1
  %9 = alloca ptr, align 8
  %10 = alloca i64, align 8
  %11 = alloca ptr, align 8
  %12 = alloca ptr, align 8
  %13 = alloca ptr, align 8
  %14 = alloca i64, align 8
  %15 = alloca i32, align 4
  %16 = alloca ptr, align 8
  %17 = alloca ptr, align 8
  %18 = alloca i64, align 8
  %19 = alloca ptr, align 8
  %20 = alloca i8, align 1
  %21 = alloca i32, align 4
  store ptr %0, ptr %9, align 8
  store i64 %1, ptr %10, align 8
  store ptr %2, ptr %11, align 8
  store ptr %3, ptr %12, align 8
  store ptr %4, ptr %13, align 8
  store i64 %5, ptr %14, align 8
  store i32 %6, ptr %15, align 4
  call void @llvm.lifetime.start.p0(i64 8, ptr %16) #6
  %22 = load ptr, ptr %9, align 8
  %23 = getelementptr inbounds nuw %struct.SDL_VideoDevice, ptr %22, i32 0, i32 128
  %24 = load ptr, ptr %23, align 8
  store ptr %24, ptr %16, align 8
  call void @llvm.lifetime.start.p0(i64 8, ptr %17) #6
  %25 = load ptr, ptr %16, align 8
  %26 = getelementptr inbounds nuw %struct.SDL_VideoData, ptr %25, i32 0, i32 0
  %27 = load ptr, ptr %26, align 8
  store ptr %27, ptr %17, align 8
  call void @llvm.lifetime.start.p0(i64 8, ptr %18) #6
  call void @llvm.lifetime.start.p0(i64 8, ptr %19) #6
  call void @llvm.lifetime.start.p0(i64 1, ptr %20) #6
  store i8 0, ptr %20, align 1
  %28 = load ptr, ptr %9, align 8
  %29 = call i64 @GetWindow(ptr noundef %28)
  store i64 %29, ptr %18, align 8
  %30 = load i64, ptr %18, align 8
  %31 = icmp eq i64 %30, 0
  br i1 %31, label %32, label %34

32:                                               ; preds = %7
  %33 = call zeroext i1 (ptr, ...) @SDL_SetError_REAL(ptr noundef @.str.6)
  store i1 %33, ptr %8, align 1
  store i32 1, ptr %21, align 4
  br label %83

34:                                               ; preds = %7
  %35 = load i64, ptr %10, align 8
  %36 = icmp eq i64 %35, 1
  br i1 %36, label %37, label %40

37:                                               ; preds = %34
  %38 = load ptr, ptr %16, align 8
  %39 = getelementptr inbounds nuw %struct.SDL_VideoData, ptr %38, i32 0, i32 11
  store ptr %39, ptr %19, align 8
  br label %43

40:                                               ; preds = %34
  %41 = load ptr, ptr %16, align 8
  %42 = getelementptr inbounds nuw %struct.SDL_VideoData, ptr %41, i32 0, i32 10
  store ptr %42, ptr %19, align 8
  br label %43

43:                                               ; preds = %40, %37
  %44 = load ptr, ptr @X11_XGetSelectionOwner, align 8
  %45 = load ptr, ptr %17, align 8
  %46 = load i64, ptr %10, align 8
  %47 = call i64 %44(ptr noundef %45, i64 noundef %46)
  %48 = load i64, ptr %18, align 8
  %49 = icmp eq i64 %47, %48
  %50 = zext i1 %49 to i8
  store i8 %50, ptr %20, align 1
  %51 = load i8, ptr %20, align 1, !range !3, !noundef !4
  %52 = trunc i8 %51 to i1
  br i1 %52, label %53, label %62

53:                                               ; preds = %43
  %54 = load ptr, ptr %19, align 8
  %55 = getelementptr inbounds nuw %struct.X11_ClipboardData, ptr %54, i32 0, i32 4
  %56 = load i32, ptr %55, align 8
  %57 = icmp eq i32 %56, 0
  br i1 %57, label %58, label %62

58:                                               ; preds = %53
  %59 = load ptr, ptr %19, align 8
  %60 = getelementptr inbounds nuw %struct.X11_ClipboardData, ptr %59, i32 0, i32 1
  %61 = load ptr, ptr %60, align 8
  call void @SDL_free_REAL(ptr noundef %61)
  br label %62

62:                                               ; preds = %58, %53, %43
  %63 = load ptr, ptr %11, align 8
  %64 = load ptr, ptr %19, align 8
  %65 = getelementptr inbounds nuw %struct.X11_ClipboardData, ptr %64, i32 0, i32 0
  store ptr %63, ptr %65, align 8
  %66 = load ptr, ptr %12, align 8
  %67 = load ptr, ptr %19, align 8
  %68 = getelementptr inbounds nuw %struct.X11_ClipboardData, ptr %67, i32 0, i32 1
  store ptr %66, ptr %68, align 8
  %69 = load ptr, ptr %13, align 8
  %70 = load ptr, ptr %19, align 8
  %71 = getelementptr inbounds nuw %struct.X11_ClipboardData, ptr %70, i32 0, i32 2
  store ptr %69, ptr %71, align 8
  %72 = load i64, ptr %14, align 8
  %73 = load ptr, ptr %19, align 8
  %74 = getelementptr inbounds nuw %struct.X11_ClipboardData, ptr %73, i32 0, i32 3
  store i64 %72, ptr %74, align 8
  %75 = load i32, ptr %15, align 4
  %76 = load ptr, ptr %19, align 8
  %77 = getelementptr inbounds nuw %struct.X11_ClipboardData, ptr %76, i32 0, i32 4
  store i32 %75, ptr %77, align 8
  %78 = load ptr, ptr @X11_XSetSelectionOwner, align 8
  %79 = load ptr, ptr %17, align 8
  %80 = load i64, ptr %10, align 8
  %81 = load i64, ptr %18, align 8
  %82 = call i32 %78(ptr noundef %79, i64 noundef %80, i64 noundef %81, i64 noundef 0)
  store i1 true, ptr %8, align 1
  store i32 1, ptr %21, align 4
  br label %83

83:                                               ; preds = %62, %32
  call void @llvm.lifetime.end.p0(i64 1, ptr %20) #6
  call void @llvm.lifetime.end.p0(i64 8, ptr %19) #6
  call void @llvm.lifetime.end.p0(i64 8, ptr %18) #6
  call void @llvm.lifetime.end.p0(i64 8, ptr %17) #6
  call void @llvm.lifetime.end.p0(i64 8, ptr %16) #6
  %84 = load i1, ptr %8, align 1
  ret i1 %84
}