; Function Attrs: nounwind uwtable
define internal fastcc zeroext i1 @SetSelectionData(ptr captures(none) %.1656.val, i64 noundef %0, ptr noundef %1, ptr noundef %2, ptr noundef %3, i64 noundef %4, i32 noundef %5) unnamed_addr #0 {
  %7 = alloca %struct.XSetWindowAttributes, align 8
  %8 = load ptr, ptr %.1656.val, align 8
  %9 = getelementptr inbounds nuw i8, ptr %.1656.val, i64 72
  %10 = load i64, ptr %9, align 8
  %11 = icmp eq i64 %10, 0
  br i1 %11, label %GetWindow.exit, label %GetWindow.exit.thread

GetWindow.exit:                                   ; preds = %6
  %12 = getelementptr inbounds nuw i8, ptr %8, i64 232
  %13 = load ptr, ptr %12, align 8
  %14 = getelementptr inbounds nuw i8, ptr %8, i64 224
  %15 = load i32, ptr %14, align 8
  %16 = sext i32 %15 to i64
  %17 = getelementptr inbounds %struct.Screen, ptr %13, i64 %16, i32 2
  %18 = load i64, ptr %17, align 8
  call void @llvm.lifetime.start.p0(i64 112, ptr nonnull %7) #6
  %19 = load ptr, ptr @X11_XCreateWindow, align 8
  %20 = call i64 %19(ptr noundef %8, i64 noundef %18, i32 noundef -10, i32 noundef -10, i32 noundef 1, i32 noundef 1, i32 noundef 0, i32 noundef 0, i32 noundef 2, ptr noundef null, i64 noundef 0, ptr noundef nonnull %7) #6
  store i64 %20, ptr %9, align 8
  %21 = load ptr, ptr @X11_XSelectInput, align 8
  %22 = call i32 %21(ptr noundef %8, i64 noundef %20, i64 noundef 4194304) #6
  %23 = load ptr, ptr @X11_XFlush, align 8
  %24 = load ptr, ptr %.1656.val, align 8
  %25 = call i32 %23(ptr noundef %24) #6
  call void @llvm.lifetime.end.p0(i64 112, ptr nonnull %7) #6
  %.pre.i = load i64, ptr %9, align 8
  %26 = icmp eq i64 %.pre.i, 0
  br i1 %26, label %27, label %GetWindow.exit.thread

27:                                               ; preds = %GetWindow.exit
  %28 = call zeroext i1 (ptr, ...) @SDL_SetError_REAL(ptr noundef nonnull @.str.6) #6
  br label %48

GetWindow.exit.thread:                            ; preds = %6, %GetWindow.exit
  %29 = phi i64 [ %.pre.i, %GetWindow.exit ], [ %10, %6 ]
  %30 = icmp eq i64 %0, 1
  %.0.v = select i1 %30, i64 120, i64 80
  %.0 = getelementptr inbounds nuw i8, ptr %.1656.val, i64 %.0.v
  %31 = load ptr, ptr @X11_XGetSelectionOwner, align 8
  %32 = call i64 %31(ptr noundef %8, i64 noundef %0) #6
  %33 = icmp eq i64 %32, %29
  br i1 %33, label %34, label %41

34:                                               ; preds = %GetWindow.exit.thread
  %35 = getelementptr inbounds nuw i8, ptr %.0, i64 32
  %36 = load i32, ptr %35, align 8
  %37 = icmp eq i32 %36, 0
  br i1 %37, label %38, label %41

38:                                               ; preds = %34
  %39 = getelementptr inbounds nuw i8, ptr %.0, i64 8
  %40 = load ptr, ptr %39, align 8
  call void @SDL_free_REAL(ptr noundef %40) #6
  br label %41

41:                                               ; preds = %38, %34, %GetWindow.exit.thread
  store ptr %1, ptr %.0, align 8
  %42 = getelementptr inbounds nuw i8, ptr %.0, i64 8
  store ptr %2, ptr %42, align 8
  %43 = getelementptr inbounds nuw i8, ptr %.0, i64 16
  store ptr %3, ptr %43, align 8
  %44 = getelementptr inbounds nuw i8, ptr %.0, i64 24
  store i64 %4, ptr %44, align 8
  %45 = getelementptr inbounds nuw i8, ptr %.0, i64 32
  store i32 %5, ptr %45, align 8
  %46 = load ptr, ptr @X11_XSetSelectionOwner, align 8
  %47 = call i32 %46(ptr noundef %8, i64 noundef %0, i64 noundef %29, i64 noundef 0) #6
  br label %48

48:                                               ; preds = %41, %27
  %.026 = phi i1 [ %28, %27 ], [ true, %41 ]
  ret i1 %.026
}